; Function Attrs: mustprogress uwtable
define noundef i32 @_ZNK7Imf_3_47Context9partCountEv(ptr noundef nonnull readonly align 8 captures(none) dereferenceable(16) %0) local_unnamed_addr #3 align 2 personality ptr @__gxx_personality_v0 {
  %2 = alloca i32, align 4
  %3 = alloca %"class.std::__cxx11::basic_stringstream", align 8
  call void @llvm.lifetime.start.p0(i64 4, ptr nonnull %2) #30
  store i32 0, ptr %2, align 4, !tbaa !24
  %4 = load ptr, ptr %0, align 8, !tbaa !8
  %5 = load ptr, ptr %4, align 8, !tbaa !3
  %6 = call i32 @exr_get_count(ptr noundef %5, ptr noundef nonnull %2)
  %.not = icmp eq i32 %6, 0
  br i1 %.not, label %22, label %7

7:                                                ; preds = %1
  call void @_Z13iex_debugTrapv()
  call void @llvm.lifetime.start.p0(i64 392, ptr nonnull %3) #30
  call void @_ZNSt7__cxx1118basic_stringstreamIcSt11char_traitsIcESaIcEEC1Ev(ptr noundef nonnull align 8 dereferenceable(128) %3)
  %8 = getelementptr inbounds nuw i8, ptr %3, i64 16
  %9 = invoke noundef nonnull align 8 dereferenceable(8) ptr @_ZSt16__ostream_insertIcSt11char_traitsIcEERSt13basic_ostreamIT_T0_ES6_PKS3_l(ptr noundef nonnull align 8 dereferenceable(8) %8, ptr noundef nonnull @.str.8, i64 noundef 35)
          to label %_ZStlsISt11char_traitsIcEERSt13basic_ostreamIcT_ES5_PKc.exit unwind label %17

_ZStlsISt11char_traitsIcEERSt13basic_ostreamIcT_ES5_PKc.exit: ; preds = %7
  %10 = invoke noundef ptr @_ZNK7Imf_3_47Context8fileNameEv(ptr noundef nonnull align 8 dereferenceable(16) %0)
          to label %11 unwind label %17

11:                                               ; preds = %_ZStlsISt11char_traitsIcEERSt13basic_ostreamIcT_ES5_PKc.exit
  %12 = invoke noundef nonnull align 8 dereferenceable(8) ptr @_ZStlsISt11char_traitsIcEERSt13basic_ostreamIcT_ES5_PKc(ptr noundef nonnull align 8 dereferenceable(8) %8, ptr noundef %10)
          to label %13 unwind label %17

13:                                               ; preds = %11
  %14 = invoke noundef nonnull align 8 dereferenceable(8) ptr @_ZSt16__ostream_insertIcSt11char_traitsIcEERSt13basic_ostreamIT_T0_ES6_PKS3_l(ptr noundef nonnull align 8 dereferenceable(8) %12, ptr noundef nonnull @.str.9, i64 noundef 1)
          to label %_ZStlsISt11char_traitsIcEERSt13basic_ostreamIcT_ES5_PKc.exit4 unwind label %17

_ZStlsISt11char_traitsIcEERSt13basic_ostreamIcT_ES5_PKc.exit4: ; preds = %13
  %15 = call ptr @__cxa_allocate_exception(i64 72) #30
  invoke void @_ZN7Iex_3_46ArgExcC1ERNSt7__cxx1118basic_stringstreamIcSt11char_traitsIcESaIcEEE(ptr noundef nonnull align 8 dereferenceable(72) %15, ptr noundef nonnull align 8 dereferenceable(128) %3)
          to label %16 unwind label %19

16:                                               ; preds = %_ZStlsISt11char_traitsIcEERSt13basic_ostreamIcT_ES5_PKc.exit4
  invoke void @__cxa_throw(ptr nonnull %15, ptr nonnull @_ZTIN7Iex_3_46ArgExcE, ptr nonnull @_ZN7Iex_3_46ArgExcD1Ev) #32
          to label %24 unwind label %17

17:                                               ; preds = %13, %7, %16, %11, %_ZStlsISt11char_traitsIcEERSt13basic_ostreamIcT_ES5_PKc.exit
  %18 = landingpad { ptr, i32 }
          cleanup
  br label %21

19:                                               ; preds = %_ZStlsISt11char_traitsIcEERSt13basic_ostreamIcT_ES5_PKc.exit4
  %20 = landingpad { ptr, i32 }
          cleanup
  call void @__cxa_free_exception(ptr nonnull %15) #30
  br label %21

21:                                               ; preds = %19, %17
  %.pn = phi { ptr, i32 } [ %18, %17 ], [ %20, %19 ]
  call void @_ZNSt7__cxx1118basic_stringstreamIcSt11char_traitsIcESaIcEED1Ev(ptr noundef nonnull align 8 dereferenceable(128) %3) #30
  call void @llvm.lifetime.end.p0(i64 392, ptr nonnull %3) #30
  call void @llvm.lifetime.end.p0(i64 4, ptr nonnull %2) #30
  resume { ptr, i32 } %.pn

22:                                               ; preds = %1
  %23 = load i32, ptr %2, align 4, !tbaa !24
  call void @llvm.lifetime.end.p0(i64 4, ptr nonnull %2) #30
  ret i32 %23

24:                                               ; preds = %16
  unreachable
}